target datalayout = "e-m:e-p270:32:32-p271:32:32-p272:64:64-i64:64-i128:128-f80:128-n8:16:32:64-S128"
target triple = "x86_64-pc-linux-gnu"

%struct.DdManager = type { %struct.DdNode, ptr, ptr, ptr, ptr, ptr, ptr, ptr, i32, i32, double, double, double, i32, i32, i32, i32, i32, i32, ptr, ptr, %struct.DdSubtable, i32, i32, i32, i32, i32, i32, i32, double, i32, i32, i32, ptr, i64, double, i32, ptr, ptr, ptr, ptr, ptr, ptr, ptr, i32, ptr, ptr, ptr, ptr, ptr, ptr, i32, i32, i32, double, i32, i32, i32, i32, double, double, i32, i32, i32, i32, i32, i32, i32, i32, i32, ptr, ptr, i32, i32, i32, i32, i32, i32, ptr, ptr, ptr, ptr, ptr, ptr, ptr, ptr, i32, i64, i64, i64, i32, i64, i64, double, double, double, double, double, double, i32, ptr, ptr, i64 }
%struct.DdNode = type { i32, i32, ptr, %union.anon, i64 }
%union.anon = type { %struct.DdChildren }
%struct.DdChildren = type { ptr, ptr }
%struct.DdSubtable = type { ptr, i32, i32, i32, i32, i32, i32, i32, i32, i32, i32, i32 }

; Function Attrs: nounwind uwtable
define internal ptr @ddFindEssentialRecur(ptr noundef %0, ptr noundef %1) #0 {
  %3 = alloca ptr, align 8
  %4 = alloca ptr, align 8
  %5 = alloca ptr, align 8
  %6 = alloca ptr, align 8
  %7 = alloca ptr, align 8
  %8 = alloca ptr, align 8
  %9 = alloca ptr, align 8
  %10 = alloca ptr, align 8
  %11 = alloca ptr, align 8
  %12 = alloca i32, align 4
  %13 = alloca ptr, align 8
  %14 = alloca ptr, align 8
  %15 = alloca ptr, align 8
  store ptr %0, ptr %4, align 8
  store ptr %1, ptr %5, align 8
  %16 = load ptr, ptr %4, align 8
  %17 = getelementptr inbounds %struct.DdManager, ptr %16, i32 0, i32 1
  %18 = load ptr, ptr %17, align 8
  store ptr %18, ptr %13, align 8
  %19 = load ptr, ptr %5, align 8
  %20 = ptrtoint ptr %19 to i64
  %21 = and i64 %20, -2
  %22 = inttoptr i64 %21 to ptr
  store ptr %22, ptr %8, align 8
  %23 = load ptr, ptr %8, align 8
  %24 = getelementptr inbounds %struct.DdNode, ptr %23, i32 0, i32 0
  %25 = load i32, ptr %24, align 8
  %26 = icmp eq i32 %25, 2147483647
  br i1 %26, label %27, label %29

27:                                               ; preds = %2
  %28 = load ptr, ptr %13, align 8
  store ptr %28, ptr %3, align 8
  br label %305

29:                                               ; preds = %2
  %30 = load ptr, ptr %4, align 8
  %31 = load ptr, ptr %5, align 8
  %32 = call ptr @cuddCacheLookup1(ptr noundef %30, ptr noundef @Cudd_FindEssential, ptr noundef %31)
  store ptr %32, ptr %11, align 8
  %33 = load ptr, ptr %11, align 8
  %34 = icmp ne ptr %33, null
  br i1 %34, label %35, label %37

35:                                               ; preds = %29
  %36 = load ptr, ptr %11, align 8
  store ptr %36, ptr %3, align 8
  br label %305

37:                                               ; preds = %29
  %38 = load ptr, ptr %13, align 8
  %39 = ptrtoint ptr %38 to i64
  %40 = xor i64 %39, 1
  %41 = inttoptr i64 %40 to ptr
  store ptr %41, ptr %14, align 8
  %42 = load ptr, ptr %4, align 8
  %43 = getelementptr inbounds %struct.DdManager, ptr %42, i32 0, i32 2
  %44 = load ptr, ptr %43, align 8
  store ptr %44, ptr %15, align 8
  %45 = load ptr, ptr %8, align 8
  %46 = getelementptr inbounds %struct.DdNode, ptr %45, i32 0, i32 3
  %47 = getelementptr inbounds %struct.DdChildren, ptr %46, i32 0, i32 0
  %48 = load ptr, ptr %47, align 8
  store ptr %48, ptr %6, align 8
  %49 = load ptr, ptr %8, align 8
  %50 = getelementptr inbounds %struct.DdNode, ptr %49, i32 0, i32 3
  %51 = getelementptr inbounds %struct.DdChildren, ptr %50, i32 0, i32 1
  %52 = load ptr, ptr %51, align 8
  store ptr %52, ptr %7, align 8
  %53 = load ptr, ptr %5, align 8
  %54 = ptrtoint ptr %53 to i64
  %55 = and i64 %54, 1
  %56 = trunc i64 %55 to i32
  %57 = icmp ne i32 %56, 0
  br i1 %57, label %58, label %67

58:                                               ; preds = %37
  %59 = load ptr, ptr %6, align 8
  %60 = ptrtoint ptr %59 to i64
  %61 = xor i64 %60, 1
  %62 = inttoptr i64 %61 to ptr
  store ptr %62, ptr %6, align 8
  %63 = load ptr, ptr %7, align 8
  %64 = ptrtoint ptr %63 to i64
  %65 = xor i64 %64, 1
  %66 = inttoptr i64 %65 to ptr
  store ptr %66, ptr %7, align 8
  br label %67

67:                                               ; preds = %58, %37
  %68 = load ptr, ptr %8, align 8
  %69 = getelementptr inbounds %struct.DdNode, ptr %68, i32 0, i32 0
  %70 = load i32, ptr %69, align 8
  store i32 %70, ptr %12, align 4
  %71 = load ptr, ptr %6, align 8
  %72 = ptrtoint ptr %71 to i64
  %73 = and i64 %72, -2
  %74 = inttoptr i64 %73 to ptr
  %75 = getelementptr inbounds %struct.DdNode, ptr %74, i32 0, i32 0
  %76 = load i32, ptr %75, align 8
  %77 = icmp eq i32 %76, 2147483647
  br i1 %77, label %78, label %105

78:                                               ; preds = %67
  %79 = load ptr, ptr %6, align 8
  %80 = load ptr, ptr %14, align 8
  %81 = icmp ne ptr %79, %80
  br i1 %81, label %82, label %105

82:                                               ; preds = %78
  %83 = load ptr, ptr %6, align 8
  %84 = load ptr, ptr %15, align 8
  %85 = icmp ne ptr %83, %84
  br i1 %85, label %86, label %105

86:                                               ; preds = %82
  %87 = load ptr, ptr %7, align 8
  %88 = load ptr, ptr %14, align 8
  %89 = icmp eq ptr %87, %88
  br i1 %89, label %94, label %90

90:                                               ; preds = %86
  %91 = load ptr, ptr %7, align 8
  %92 = load ptr, ptr %15, align 8
  %93 = icmp eq ptr %91, %92
  br i1 %93, label %94, label %102

94:                                               ; preds = %90, %86
  %95 = load ptr, ptr %4, align 8
  %96 = getelementptr inbounds %struct.DdManager, ptr %95, i32 0, i32 41
  %97 = load ptr, ptr %96, align 8
  %98 = load i32, ptr %12, align 4
  %99 = sext i32 %98 to i64
  %100 = getelementptr inbounds ptr, ptr %97, i64 %99
  %101 = load ptr, ptr %100, align 8
  store ptr %101, ptr %11, align 8
  br label %104

102:                                              ; preds = %90
  %103 = load ptr, ptr %13, align 8
  store ptr %103, ptr %11, align 8
  br label %104

104:                                              ; preds = %102, %94
  br label %300

105:                                              ; preds = %82, %78, %67
  %106 = load ptr, ptr %6, align 8
  %107 = load ptr, ptr %14, align 8
  %108 = icmp eq ptr %106, %107
  br i1 %108, label %113, label %109

109:                                              ; preds = %105
  %110 = load ptr, ptr %6, align 8
  %111 = load ptr, ptr %15, align 8
  %112 = icmp eq ptr %110, %111
  br i1 %112, label %113, label %173

113:                                              ; preds = %109, %105
  %114 = load ptr, ptr %7, align 8
  %115 = ptrtoint ptr %114 to i64
  %116 = and i64 %115, -2
  %117 = inttoptr i64 %116 to ptr
  %118 = getelementptr inbounds %struct.DdNode, ptr %117, i32 0, i32 0
  %119 = load i32, ptr %118, align 8
  %120 = icmp eq i32 %119, 2147483647
  br i1 %120, label %121, label %132

121:                                              ; preds = %113
  %122 = load ptr, ptr %4, align 8
  %123 = getelementptr inbounds %struct.DdManager, ptr %122, i32 0, i32 41
  %124 = load ptr, ptr %123, align 8
  %125 = load i32, ptr %12, align 4
  %126 = sext i32 %125 to i64
  %127 = getelementptr inbounds ptr, ptr %124, i64 %126
  %128 = load ptr, ptr %127, align 8
  %129 = ptrtoint ptr %128 to i64
  %130 = xor i64 %129, 1
  %131 = inttoptr i64 %130 to ptr
  store ptr %131, ptr %11, align 8
  br label %172

132:                                              ; preds = %113
  %133 = load ptr, ptr %4, align 8
  %134 = load ptr, ptr %7, align 8
  %135 = call ptr @ddFindEssentialRecur(ptr noundef %133, ptr noundef %134)
  store ptr %135, ptr %10, align 8
  %136 = load ptr, ptr %10, align 8
  %137 = icmp eq ptr %136, null
  br i1 %137, label %138, label %139

138:                                              ; preds = %132
  store ptr null, ptr %3, align 8
  br label %305

139:                                              ; preds = %132
  %140 = load ptr, ptr %10, align 8
  %141 = ptrtoint ptr %140 to i64
  %142 = and i64 %141, -2
  %143 = inttoptr i64 %142 to ptr
  %144 = getelementptr inbounds %struct.DdNode, ptr %143, i32 0, i32 1
  %145 = load i32, ptr %144, align 4
  %146 = add i32 %145, 1
  store i32 %146, ptr %144, align 4
  %147 = load ptr, ptr %4, align 8
  %148 = load i32, ptr %12, align 4
  %149 = load ptr, ptr %13, align 8
  %150 = load ptr, ptr %10, align 8
  %151 = ptrtoint ptr %150 to i64
  %152 = xor i64 %151, 1
  %153 = inttoptr i64 %152 to ptr
  %154 = call ptr @cuddUniqueInter(ptr noundef %147, i32 noundef %148, ptr noundef %149, ptr noundef %153)
  store ptr %154, ptr %11, align 8
  %155 = load ptr, ptr %11, align 8
  %156 = icmp eq ptr %155, null
  br i1 %156, label %157, label %160

157:                                              ; preds = %139
  %158 = load ptr, ptr %4, align 8
  %159 = load ptr, ptr %10, align 8
  call void @Cudd_RecursiveDeref(ptr noundef %158, ptr noundef %159)
  store ptr null, ptr %3, align 8
  br label %305

160:                                              ; preds = %139
  %161 = load ptr, ptr %11, align 8
  %162 = ptrtoint ptr %161 to i64
  %163 = xor i64 %162, 1
  %164 = inttoptr i64 %163 to ptr
  store ptr %164, ptr %11, align 8
  %165 = load ptr, ptr %10, align 8
  %166 = ptrtoint ptr %165 to i64
  %167 = and i64 %166, -2
  %168 = inttoptr i64 %167 to ptr
  %169 = getelementptr inbounds %struct.DdNode, ptr %168, i32 0, i32 1
  %170 = load i32, ptr %169, align 4
  %171 = add i32 %170, -1
  store i32 %171, ptr %169, align 4
  br label %172

172:                                              ; preds = %160, %121
  br label %299

173:                                              ; preds = %109
  %174 = load ptr, ptr %7, align 8
  %175 = load ptr, ptr %14, align 8
  %176 = icmp eq ptr %174, %175
  br i1 %176, label %181, label %177

177:                                              ; preds = %173
  %178 = load ptr, ptr %7, align 8
  %179 = load ptr, ptr %15, align 8
  %180 = icmp eq ptr %178, %179
  br i1 %180, label %181, label %219

181:                                              ; preds = %177, %173
  %182 = load ptr, ptr %4, align 8
  %183 = load ptr, ptr %6, align 8
  %184 = call ptr @ddFindEssentialRecur(ptr noundef %182, ptr noundef %183)
  store ptr %184, ptr %9, align 8
  %185 = load ptr, ptr %9, align 8
  %186 = icmp eq ptr %185, null
  br i1 %186, label %187, label %188

187:                                              ; preds = %181
  store ptr null, ptr %3, align 8
  br label %305

188:                                              ; preds = %181
  %189 = load ptr, ptr %9, align 8
  %190 = ptrtoint ptr %189 to i64
  %191 = and i64 %190, -2
  %192 = inttoptr i64 %191 to ptr
  %193 = getelementptr inbounds %struct.DdNode, ptr %192, i32 0, i32 1
  %194 = load i32, ptr %193, align 4
  %195 = add i32 %194, 1
  store i32 %195, ptr %193, align 4
  %196 = load ptr, ptr %4, align 8
  %197 = load ptr, ptr %4, align 8
  %198 = getelementptr inbounds %struct.DdManager, ptr %197, i32 0, i32 41
  %199 = load ptr, ptr %198, align 8
  %200 = load i32, ptr %12, align 4
  %201 = sext i32 %200 to i64
  %202 = getelementptr inbounds ptr, ptr %199, i64 %201
  %203 = load ptr, ptr %202, align 8
  %204 = load ptr, ptr %9, align 8
  %205 = call ptr @cuddBddAndRecur(ptr noundef %196, ptr noundef %203, ptr noundef %204)
  store ptr %205, ptr %11, align 8
  %206 = load ptr, ptr %11, align 8
  %207 = icmp eq ptr %206, null
  br i1 %207, label %208, label %211

208:                                              ; preds = %188
  %209 = load ptr, ptr %4, align 8
  %210 = load ptr, ptr %9, align 8
  call void @Cudd_RecursiveDeref(ptr noundef %209, ptr noundef %210)
  store ptr null, ptr %3, align 8
  br label %305

211:                                              ; preds = %188
  %212 = load ptr, ptr %9, align 8
  %213 = ptrtoint ptr %212 to i64
  %214 = and i64 %213, -2
  %215 = inttoptr i64 %214 to ptr
  %216 = getelementptr inbounds %struct.DdNode, ptr %215, i32 0, i32 1
  %217 = load i32, ptr %216, align 4
  %218 = add i32 %217, -1
  store i32 %218, ptr %216, align 4
  br label %298

219:                                              ; preds = %177
  %220 = load ptr, ptr %7, align 8
  %221 = ptrtoint ptr %220 to i64
  %222 = and i64 %221, -2
  %223 = inttoptr i64 %222 to ptr
  %224 = getelementptr inbounds %struct.DdNode, ptr %223, i32 0, i32 0
  %225 = load i32, ptr %224, align 8
  %226 = icmp eq i32 %225, 2147483647
  br i1 %226, label %295, label %227

227:                                              ; preds = %219
  %228 = load ptr, ptr %4, align 8
  %229 = load ptr, ptr %6, align 8
  %230 = call ptr @ddFindEssentialRecur(ptr noundef %228, ptr noundef %229)
  store ptr %230, ptr %9, align 8
  %231 = load ptr, ptr %9, align 8
  %232 = icmp eq ptr %231, null
  br i1 %232, label %233, label %234

233:                                              ; preds = %227
  store ptr null, ptr %3, align 8
  br label %305

234:                                              ; preds = %227
  %235 = load ptr, ptr %9, align 8
  %236 = load ptr, ptr %13, align 8
  %237 = icmp eq ptr %235, %236
  br i1 %237, label %238, label %240

238:                                              ; preds = %234
  %239 = load ptr, ptr %13, align 8
  store ptr %239, ptr %11, align 8
  br label %294

240:                                              ; preds = %234
  %241 = load ptr, ptr %9, align 8
  %242 = ptrtoint ptr %241 to i64
  %243 = and i64 %242, -2
  %244 = inttoptr i64 %243 to ptr
  %245 = getelementptr inbounds %struct.DdNode, ptr %244, i32 0, i32 1
  %246 = load i32, ptr %245, align 4
  %247 = add i32 %246, 1
  store i32 %247, ptr %245, align 4
  %248 = load ptr, ptr %4, align 8
  %249 = load ptr, ptr %7, align 8
  %250 = call ptr @ddFindEssentialRecur(ptr noundef %248, ptr noundef %249)
  store ptr %250, ptr %10, align 8
  %251 = load ptr, ptr %10, align 8
  %252 = icmp eq ptr %251, null
  br i1 %252, label %253, label %256

253:                                              ; preds = %240
  %254 = load ptr, ptr %4, align 8
  %255 = load ptr, ptr %9, align 8
  call void @Cudd_RecursiveDeref(ptr noundef %254, ptr noundef %255)
  store ptr null, ptr %3, align 8
  br label %305

256:                                              ; preds = %240
  %257 = load ptr, ptr %10, align 8
  %258 = ptrtoint ptr %257 to i64
  %259 = and i64 %258, -2
  %260 = inttoptr i64 %259 to ptr
  %261 = getelementptr inbounds %struct.DdNode, ptr %260, i32 0, i32 1
  %262 = load i32, ptr %261, align 4
  %263 = add i32 %262, 1
  store i32 %263, ptr %261, align 4
  %264 = load ptr, ptr %4, align 8
  %265 = load ptr, ptr %9, align 8
  %266 = load ptr, ptr %10, align 8
  %267 = call ptr @cuddBddLiteralSetIntersectionRecur(ptr noundef %264, ptr noundef %265, ptr noundef %266)
  store ptr %267, ptr %11, align 8
  %268 = load ptr, ptr %11, align 8
  %269 = icmp eq ptr %268, null
  br i1 %269, label %270, label %275

270:                                              ; preds = %256
  %271 = load ptr, ptr %4, align 8
  %272 = load ptr, ptr %9, align 8
  call void @Cudd_RecursiveDeref(ptr noundef %271, ptr noundef %272)
  %273 = load ptr, ptr %4, align 8
  %274 = load ptr, ptr %10, align 8
  call void @Cudd_RecursiveDeref(ptr noundef %273, ptr noundef %274)
  store ptr null, ptr %3, align 8
  br label %305

275:                                              ; preds = %256
  %276 = load ptr, ptr %11, align 8
  %277 = ptrtoint ptr %276 to i64
  %278 = and i64 %277, -2
  %279 = inttoptr i64 %278 to ptr
  %280 = getelementptr inbounds %struct.DdNode, ptr %279, i32 0, i32 1
  %281 = load i32, ptr %280, align 4
  %282 = add i32 %281, 1
  store i32 %282, ptr %280, align 4
  %283 = load ptr, ptr %4, align 8
  %284 = load ptr, ptr %9, align 8
  call void @Cudd_RecursiveDeref(ptr noundef %283, ptr noundef %284)
  %285 = load ptr, ptr %4, align 8
  %286 = load ptr, ptr %10, align 8
  call void @Cudd_RecursiveDeref(ptr noundef %285, ptr noundef %286)
  %287 = load ptr, ptr %11, align 8
  %288 = ptrtoint ptr %287 to i64
  %289 = and i64 %288, -2
  %290 = inttoptr i64 %289 to ptr
  %291 = getelementptr inbounds %struct.DdNode, ptr %290, i32 0, i32 1
  %292 = load i32, ptr %291, align 4
  %293 = add i32 %292, -1
  store i32 %293, ptr %291, align 4
  br label %294

294:                                              ; preds = %275, %238
  br label %297

295:                                              ; preds = %219
  %296 = load ptr, ptr %13, align 8
  store ptr %296, ptr %11, align 8
  br label %297

297:                                              ; preds = %295, %294
  br label %298

298:                                              ; preds = %297, %211
  br label %299

299:                                              ; preds = %298, %172
  br label %300

300:                                              ; preds = %299, %104
  %301 = load ptr, ptr %4, align 8
  %302 = load ptr, ptr %5, align 8
  %303 = load ptr, ptr %11, align 8
  call void @cuddCacheInsert1(ptr noundef %301, ptr noundef @Cudd_FindEssential, ptr noundef %302, ptr noundef %303)
  %304 = load ptr, ptr %11, align 8
  store ptr %304, ptr %3, align 8
  br label %305

305:                                              ; preds = %300, %270, %253, %233, %208, %187, %157, %138, %35, %27
  %306 = load ptr, ptr %3, align 8
  ret ptr %306
}