; Function Attrs: nounwind uwtable
define internal fastcc ptr @ddFindEssentialRecur(ptr noundef %0, ptr noundef %1) unnamed_addr #0 {
  %3 = getelementptr inbounds nuw i8, ptr %0, i64 40
  %4 = load ptr, ptr %3, align 8
  %5 = ptrtoint ptr %1 to i64
  %6 = and i64 %5, -2
  %7 = inttoptr i64 %6 to ptr
  %8 = load i32, ptr %7, align 8
  %9 = icmp eq i32 %8, 2147483647
  br i1 %9, label %146, label %10

10:                                               ; preds = %2
  %11 = tail call ptr @cuddCacheLookup1(ptr noundef nonnull %0, ptr noundef nonnull @Cudd_FindEssential, ptr noundef %1) #11
  %.not = icmp eq ptr %11, null
  br i1 %.not, label %12, label %146

12:                                               ; preds = %10
  %13 = ptrtoint ptr %4 to i64
  %14 = xor i64 %13, 1
  %15 = inttoptr i64 %14 to ptr
  %16 = getelementptr inbounds nuw i8, ptr %0, i64 48
  %17 = load ptr, ptr %16, align 8
  %18 = getelementptr inbounds nuw i8, ptr %7, i64 16
  %19 = load ptr, ptr %18, align 8
  %20 = getelementptr inbounds nuw i8, ptr %7, i64 24
  %21 = load ptr, ptr %20, align 8
  %22 = and i64 %5, 1
  %.not112 = icmp eq i64 %22, 0
  %23 = ptrtoint ptr %19 to i64
  %24 = xor i64 %23, 1
  %25 = inttoptr i64 %24 to ptr
  %26 = ptrtoint ptr %21 to i64
  %27 = xor i64 %26, 1
  %28 = inttoptr i64 %27 to ptr
  %.098 = select i1 %.not112, ptr %21, ptr %28
  %.097 = select i1 %.not112, ptr %19, ptr %25
  %29 = load i32, ptr %7, align 8
  %30 = ptrtoint ptr %.097 to i64
  %31 = and i64 %30, -2
  %32 = inttoptr i64 %31 to ptr
  %33 = load i32, ptr %32, align 8
  %34 = icmp ne i32 %33, 2147483647
  %.not113 = icmp eq ptr %.097, %15
  %or.cond = select i1 %34, i1 true, i1 %.not113
  %.not114 = icmp eq ptr %.097, %17
  %or.cond115 = select i1 %or.cond, i1 true, i1 %.not114
  br i1 %or.cond115, label %44, label %35

35:                                               ; preds = %12
  %36 = icmp eq ptr %.098, %15
  %37 = icmp eq ptr %.098, %17
  %or.cond116 = select i1 %36, i1 true, i1 %37
  br i1 %or.cond116, label %38, label %145

38:                                               ; preds = %35
  %39 = getelementptr inbounds nuw i8, ptr %0, i64 344
  %40 = load ptr, ptr %39, align 8
  %41 = sext i32 %29 to i64
  %42 = getelementptr inbounds ptr, ptr %40, i64 %41
  %43 = load ptr, ptr %42, align 8
  br label %145

44:                                               ; preds = %12
  %or.cond117 = select i1 %.not113, i1 true, i1 %.not114
  br i1 %or.cond117, label %45, label %81

45:                                               ; preds = %44
  %46 = ptrtoint ptr %.098 to i64
  %47 = and i64 %46, -2
  %48 = inttoptr i64 %47 to ptr
  %49 = load i32, ptr %48, align 8
  %50 = icmp eq i32 %49, 2147483647
  br i1 %50, label %51, label %60

51:                                               ; preds = %45
  %52 = getelementptr inbounds nuw i8, ptr %0, i64 344
  %53 = load ptr, ptr %52, align 8
  %54 = sext i32 %29 to i64
  %55 = getelementptr inbounds ptr, ptr %53, i64 %54
  %56 = load ptr, ptr %55, align 8
  %57 = ptrtoint ptr %56 to i64
  %58 = xor i64 %57, 1
  %59 = inttoptr i64 %58 to ptr
  br label %145

60:                                               ; preds = %45
  %61 = tail call fastcc ptr @ddFindEssentialRecur(ptr noundef nonnull %0, ptr noundef %.098)
  %62 = icmp eq ptr %61, null
  br i1 %62, label %146, label %63

63:                                               ; preds = %60
  %64 = ptrtoint ptr %61 to i64
  %65 = and i64 %64, -2
  %66 = inttoptr i64 %65 to ptr
  %67 = getelementptr inbounds nuw i8, ptr %66, i64 4
  %68 = load i32, ptr %67, align 4
  %69 = add i32 %68, 1
  store i32 %69, ptr %67, align 4
  %70 = xor i64 %64, 1
  %71 = inttoptr i64 %70 to ptr
  %72 = tail call ptr @cuddUniqueInter(ptr noundef nonnull %0, i32 noundef %29, ptr noundef %4, ptr noundef %71) #11
  %73 = icmp eq ptr %72, null
  br i1 %73, label %74, label %75

74:                                               ; preds = %63
  tail call void @Cudd_RecursiveDeref(ptr noundef nonnull %0, ptr noundef nonnull %61) #11
  br label %146

75:                                               ; preds = %63
  %76 = ptrtoint ptr %72 to i64
  %77 = xor i64 %76, 1
  %78 = inttoptr i64 %77 to ptr
  %79 = load i32, ptr %67, align 4
  %80 = add i32 %79, -1
  store i32 %80, ptr %67, align 4
  br label %145

81:                                               ; preds = %44
  %82 = icmp eq ptr %.098, %15
  %83 = icmp eq ptr %.098, %17
  %or.cond118 = select i1 %82, i1 true, i1 %83
  br i1 %or.cond118, label %84, label %105

84:                                               ; preds = %81
  %85 = tail call fastcc ptr @ddFindEssentialRecur(ptr noundef nonnull %0, ptr noundef %.097)
  %86 = icmp eq ptr %85, null
  br i1 %86, label %146, label %87

87:                                               ; preds = %84
  %88 = ptrtoint ptr %85 to i64
  %89 = and i64 %88, -2
  %90 = inttoptr i64 %89 to ptr
  %91 = getelementptr inbounds nuw i8, ptr %90, i64 4
  %92 = load i32, ptr %91, align 4
  %93 = add i32 %92, 1
  store i32 %93, ptr %91, align 4
  %94 = getelementptr inbounds nuw i8, ptr %0, i64 344
  %95 = load ptr, ptr %94, align 8
  %96 = sext i32 %29 to i64
  %97 = getelementptr inbounds ptr, ptr %95, i64 %96
  %98 = load ptr, ptr %97, align 8
  %99 = tail call ptr @cuddBddAndRecur(ptr noundef nonnull %0, ptr noundef %98, ptr noundef nonnull %85) #11
  %100 = icmp eq ptr %99, null
  br i1 %100, label %101, label %102

101:                                              ; preds = %87
  tail call void @Cudd_RecursiveDeref(ptr noundef nonnull %0, ptr noundef nonnull %85) #11
  br label %146

102:                                              ; preds = %87
  %103 = load i32, ptr %91, align 4
  %104 = add i32 %103, -1
  store i32 %104, ptr %91, align 4
  br label %145

105:                                              ; preds = %81
  %106 = ptrtoint ptr %.098 to i64
  %107 = and i64 %106, -2
  %108 = inttoptr i64 %107 to ptr
  %109 = load i32, ptr %108, align 8
  %110 = icmp eq i32 %109, 2147483647
  br i1 %110, label %145, label %111

111:                                              ; preds = %105
  %112 = tail call fastcc ptr @ddFindEssentialRecur(ptr noundef nonnull %0, ptr noundef %.097)
  %113 = icmp eq ptr %112, null
  br i1 %113, label %146, label %114

114:                                              ; preds = %111
  %115 = icmp eq ptr %112, %4
  br i1 %115, label %145, label %116

116:                                              ; preds = %114
  %117 = ptrtoint ptr %112 to i64
  %118 = and i64 %117, -2
  %119 = inttoptr i64 %118 to ptr
  %120 = getelementptr inbounds nuw i8, ptr %119, i64 4
  %121 = load i32, ptr %120, align 4
  %122 = add i32 %121, 1
  store i32 %122, ptr %120, align 4
  %123 = tail call fastcc ptr @ddFindEssentialRecur(ptr noundef nonnull %0, ptr noundef %.098)
  %124 = icmp eq ptr %123, null
  br i1 %124, label %125, label %126

125:                                              ; preds = %116
  tail call void @Cudd_RecursiveDeref(ptr noundef nonnull %0, ptr noundef nonnull %112) #11
  br label %146

126:                                              ; preds = %116
  %127 = ptrtoint ptr %123 to i64
  %128 = and i64 %127, -2
  %129 = inttoptr i64 %128 to ptr
  %130 = getelementptr inbounds nuw i8, ptr %129, i64 4
  %131 = load i32, ptr %130, align 4
  %132 = add i32 %131, 1
  store i32 %132, ptr %130, align 4
  %133 = tail call ptr @cuddBddLiteralSetIntersectionRecur(ptr noundef nonnull %0, ptr noundef nonnull %112, ptr noundef nonnull %123) #11
  %134 = icmp eq ptr %133, null
  br i1 %134, label %135, label %136

135:                                              ; preds = %126
  tail call void @Cudd_RecursiveDeref(ptr noundef nonnull %0, ptr noundef nonnull %112) #11
  tail call void @Cudd_RecursiveDeref(ptr noundef nonnull %0, ptr noundef nonnull %123) #11
  br label %146

136:                                              ; preds = %126
  %137 = ptrtoint ptr %133 to i64
  %138 = and i64 %137, -2
  %139 = inttoptr i64 %138 to ptr
  %140 = getelementptr inbounds nuw i8, ptr %139, i64 4
  %141 = load i32, ptr %140, align 4
  %142 = add i32 %141, 1
  store i32 %142, ptr %140, align 4
  tail call void @Cudd_RecursiveDeref(ptr noundef nonnull %0, ptr noundef nonnull %112) #11
  tail call void @Cudd_RecursiveDeref(ptr noundef nonnull %0, ptr noundef nonnull %123) #11
  %143 = load i32, ptr %140, align 4
  %144 = add i32 %143, -1
  store i32 %144, ptr %140, align 4
  br label %145

145:                                              ; preds = %105, %114, %35, %75, %51, %136, %102, %38
  %.099 = phi ptr [ %43, %38 ], [ %59, %51 ], [ %78, %75 ], [ %99, %102 ], [ %133, %136 ], [ %4, %35 ], [ %4, %114 ], [ %4, %105 ]
  tail call void @cuddCacheInsert1(ptr noundef nonnull %0, ptr noundef nonnull @Cudd_FindEssential, ptr noundef %1, ptr noundef %.099) #11
  br label %146

146:                                              ; preds = %111, %84, %60, %10, %2, %145, %135, %125, %101, %74
  %.0 = phi ptr [ %.099, %145 ], [ null, %74 ], [ null, %101 ], [ null, %125 ], [ null, %135 ], [ %4, %2 ], [ %11, %10 ], [ null, %60 ], [ null, %84 ], [ null, %111 ]
  ret ptr %.0
}